target datalayout = "e-m:e-p270:32:32-p271:32:32-p272:64:64-i64:64-i128:128-f80:128-n8:16:32:64-S128"
target triple = "x86_64-pc-linux-gnu"

@progname = internal global ptr null, align 8
@silent_mode = internal global i8 0, align 1
@pg_data = internal global ptr null, align 8
@sig = internal global i32 2, align 4
@pid_file = internal global [1024 x i8] zeroinitializer, align 16
@stdout = external global ptr, align 8
@.str.147 = private unnamed_addr constant [34 x i8] c"%s: PID file \22%s\22 does not exist\0A\00", align 1
@.str.148 = private unnamed_addr constant [20 x i8] c"Is server running?\0A\00", align 1
@.str.167 = private unnamed_addr constant [2 x i8] c"w\00", align 1
@.str.176 = private unnamed_addr constant [69 x i8] c"%s: cannot rotate log file; single-user server is running (PID: %d)\0A\00", align 1
@logrotate_file = internal global [1024 x i8] zeroinitializer, align 16
@.str.177 = private unnamed_addr constant [13 x i8] c"%s/logrotate\00", align 1
@.str.178 = private unnamed_addr constant [56 x i8] c"%s: could not create log rotation signal file \22%s\22: %m\0A\00", align 1
@.str.179 = private unnamed_addr constant [55 x i8] c"%s: could not write log rotation signal file \22%s\22: %m\0A\00", align 1
@.str.180 = private unnamed_addr constant [54 x i8] c"%s: could not send log rotation signal (PID: %d): %m\0A\00", align 1
@.str.181 = private unnamed_addr constant [56 x i8] c"%s: could not remove log rotation signal file \22%s\22: %m\0A\00", align 1
@.str.182 = private unnamed_addr constant [36 x i8] c"server signaled to rotate log file\0A\00", align 1

; Function Attrs: nounwind uwtable
define internal void @print_msg(ptr noundef %0) #0 {
  %2 = alloca ptr, align 8
  store ptr %0, ptr %2, align 8
  %3 = load i8, ptr @silent_mode, align 1, !range !6, !noundef !7
  %4 = trunc i8 %3 to i1
  br i1 %4, label %11, label %5

5:                                                ; preds = %1
  %6 = load ptr, ptr %2, align 8
  %7 = load ptr, ptr @stdout, align 8
  %8 = call i32 @fputs(ptr noundef %6, ptr noundef %7)
  %9 = load ptr, ptr @stdout, align 8
  %10 = call i32 @fflush(ptr noundef %9)
  br label %11

11:                                               ; preds = %5, %1
  ret void
}

; Function Attrs: nounwind uwtable
define internal void @do_logrotate() #0 {
  %1 = alloca ptr, align 8
  %2 = alloca i32, align 4
  call void @llvm.lifetime.start.p0(i64 8, ptr %1) #10
  call void @llvm.lifetime.start.p0(i64 4, ptr %2) #10
  %3 = call i32 @get_pgpid(i1 noundef zeroext false)
  store i32 %3, ptr %2, align 4
  %4 = load i32, ptr %2, align 4
  %5 = icmp eq i32 %4, 0
  br i1 %5, label %6, label %8

6:                                                ; preds = %0
  %7 = load ptr, ptr @progname, align 8
  call void (ptr, ...) @write_stderr(ptr noundef @.str.147, ptr noundef %7, ptr noundef @pid_file)
  call void (ptr, ...) @write_stderr(ptr noundef @.str.148)
  call void @exit(i32 noundef 1) #12
  unreachable

8:                                                ; preds = %0
  %9 = load i32, ptr %2, align 4
  %10 = icmp slt i32 %9, 0
  br i1 %10, label %11, label %16

11:                                               ; preds = %8
  %12 = load i32, ptr %2, align 4
  %13 = sub i32 0, %12
  store i32 %13, ptr %2, align 4
  %14 = load ptr, ptr @progname, align 8
  %15 = load i32, ptr %2, align 4
  call void (ptr, ...) @write_stderr(ptr noundef @.str.176, ptr noundef %14, i32 noundef %15)
  call void @exit(i32 noundef 1) #12
  unreachable

16:                                               ; preds = %8
  br label %17

17:                                               ; preds = %16
  %18 = load ptr, ptr @pg_data, align 8
  %19 = call i32 (ptr, i64, ptr, ...) @pg_snprintf(ptr noundef @logrotate_file, i64 noundef 1024, ptr noundef @.str.177, ptr noundef %18)
  %20 = call noalias ptr @fopen(ptr noundef @logrotate_file, ptr noundef @.str.167)
  store ptr %20, ptr %1, align 8
  %21 = icmp eq ptr %20, null
  br i1 %21, label %22, label %24

22:                                               ; preds = %17
  %23 = load ptr, ptr @progname, align 8
  call void (ptr, ...) @write_stderr(ptr noundef @.str.178, ptr noundef %23, ptr noundef @logrotate_file)
  call void @exit(i32 noundef 1) #12
  unreachable

24:                                               ; preds = %17
  %25 = load ptr, ptr %1, align 8
  %26 = call i32 @fclose(ptr noundef %25)
  %27 = icmp ne i32 %26, 0
  br i1 %27, label %28, label %30

28:                                               ; preds = %24
  %29 = load ptr, ptr @progname, align 8
  call void (ptr, ...) @write_stderr(ptr noundef @.str.179, ptr noundef %29, ptr noundef @logrotate_file)
  call void @exit(i32 noundef 1) #12
  unreachable

30:                                               ; preds = %24
  store i32 10, ptr @sig, align 4
  %31 = load i32, ptr %2, align 4
  %32 = load i32, ptr @sig, align 4
  %33 = call i32 @kill(i32 noundef %31, i32 noundef %32) #10
  %34 = icmp ne i32 %33, 0
  br i1 %34, label %35, label %43

35:                                               ; preds = %30
  %36 = load ptr, ptr @progname, align 8
  %37 = load i32, ptr %2, align 4
  call void (ptr, ...) @write_stderr(ptr noundef @.str.180, ptr noundef %36, i32 noundef %37)
  %38 = call i32 @unlink(ptr noundef @logrotate_file) #10
  %39 = icmp ne i32 %38, 0
  br i1 %39, label %40, label %42

40:                                               ; preds = %35
  %41 = load ptr, ptr @progname, align 8
  call void (ptr, ...) @write_stderr(ptr noundef @.str.181, ptr noundef %41, ptr noundef @logrotate_file)
  br label %42

42:                                               ; preds = %40, %35
  call void @exit(i32 noundef 1) #12
  unreachable

43:                                               ; preds = %30
  call void @print_msg(ptr noundef @.str.182)
  call void @llvm.lifetime.end.p0(i64 4, ptr %2) #10
  call void @llvm.lifetime.end.p0(i64 8, ptr %1) #10
  ret void
}