; Function Attrs: nounwind uwtable
define internal fastcc void @do_logrotate() unnamed_addr #5 {
  %1 = tail call fastcc i32 @get_pgpid(i1 noundef zeroext false)
  %2 = icmp eq i32 %1, 0
  br i1 %2, label %3, label %5

3:                                                ; preds = %0
  %4 = load ptr, ptr @progname, align 8
  tail call void (ptr, ...) @write_stderr(ptr noundef nonnull @.str.147, ptr noundef %4, ptr noundef nonnull @pid_file)
  tail call void (ptr, ...) @write_stderr(ptr noundef nonnull @.str.148)
  tail call void @exit(i32 noundef 1) #20
  unreachable

5:                                                ; preds = %0
  %6 = icmp slt i32 %1, 0
  br i1 %6, label %7, label %10

7:                                                ; preds = %5
  %8 = sub i32 0, %1
  %9 = load ptr, ptr @progname, align 8
  tail call void (ptr, ...) @write_stderr(ptr noundef nonnull @.str.176, ptr noundef %9, i32 noundef %8)
  tail call void @exit(i32 noundef 1) #20
  unreachable

10:                                               ; preds = %5
  %11 = load ptr, ptr @pg_data, align 8
  %12 = tail call i32 (ptr, i64, ptr, ...) @pg_snprintf(ptr noundef nonnull @logrotate_file, i64 noundef 1024, ptr noundef nonnull @.str.177, ptr noundef %11) #17
  %13 = tail call noalias ptr @fopen(ptr noundef nonnull @logrotate_file, ptr noundef nonnull @.str.167)
  %14 = icmp eq ptr %13, null
  br i1 %14, label %15, label %17

15:                                               ; preds = %10
  %16 = load ptr, ptr @progname, align 8
  tail call void (ptr, ...) @write_stderr(ptr noundef nonnull @.str.178, ptr noundef %16, ptr noundef nonnull @logrotate_file)
  tail call void @exit(i32 noundef 1) #20
  unreachable

17:                                               ; preds = %10
  %18 = tail call i32 @fclose(ptr noundef nonnull %13)
  %.not = icmp eq i32 %18, 0
  br i1 %.not, label %21, label %19

19:                                               ; preds = %17
  %20 = load ptr, ptr @progname, align 8
  tail call void (ptr, ...) @write_stderr(ptr noundef nonnull @.str.179, ptr noundef %20, ptr noundef nonnull @logrotate_file)
  tail call void @exit(i32 noundef 1) #20
  unreachable

21:                                               ; preds = %17
  store i32 10, ptr @sig, align 4
  %22 = tail call i32 @kill(i32 noundef %1, i32 noundef 10) #17
  %.not7 = icmp eq i32 %22, 0
  br i1 %.not7, label %29, label %23

23:                                               ; preds = %21
  %24 = load ptr, ptr @progname, align 8
  tail call void (ptr, ...) @write_stderr(ptr noundef nonnull @.str.180, ptr noundef %24, i32 noundef %1)
  %25 = tail call i32 @unlink(ptr noundef nonnull @logrotate_file) #17
  %.not8 = icmp eq i32 %25, 0
  br i1 %.not8, label %28, label %26

26:                                               ; preds = %23
  %27 = load ptr, ptr @progname, align 8
  tail call void (ptr, ...) @write_stderr(ptr noundef nonnull @.str.181, ptr noundef %27, ptr noundef nonnull @logrotate_file)
  br label %28

28:                                               ; preds = %26, %23
  tail call void @exit(i32 noundef 1) #20
  unreachable

29:                                               ; preds = %21
  %.b1.i = load i1, ptr @silent_mode, align 1
  br i1 %.b1.i, label %print_msg.exit, label %30

30:                                               ; preds = %29
  %31 = load ptr, ptr @stdout, align 8
  %32 = tail call i64 @fwrite(ptr nonnull @.str.182, i64 35, i64 1, ptr %31)
  %33 = load ptr, ptr @stdout, align 8
  %34 = tail call i32 @fflush(ptr noundef %33)
  br label %print_msg.exit

print_msg.exit:                                   ; preds = %29, %30
  ret void
}